target datalayout = "e-m:e-p270:32:32-p271:32:32-p272:64:64-i64:64-i128:128-f80:128-n8:16:32:64-S128"
target triple = "x86_64-pc-linux-gnu"

@.str = private unnamed_addr constant [17 x i8] c"\00\00\00\00\00\00\00\00\1E\0F\0F\0F\00\00\00\00\00", align 1
@.str.1 = private unnamed_addr constant [17 x i8] c" 000000000000\1000\00", align 1

; Function Attrs: mustprogress nounwind uwtable
define i32 @utf8_back1SafeBody_77(ptr noundef %0, i32 noundef %1, i32 noundef %2) #2 {
  %4 = alloca i32, align 4
  %5 = alloca ptr, align 8
  %6 = alloca i32, align 4
  %7 = alloca i32, align 4
  %8 = alloca i32, align 4
  %9 = alloca i8, align 1
  %10 = alloca i8, align 1
  %11 = alloca i32, align 4
  %12 = alloca i8, align 1
  %13 = alloca i8, align 1
  store ptr %0, ptr %5, align 8, !tbaa !3
  store i32 %1, ptr %6, align 4, !tbaa !10
  store i32 %2, ptr %7, align 4, !tbaa !10
  call void @llvm.lifetime.start.p0(i64 4, ptr %8) #3
  %14 = load i32, ptr %7, align 4, !tbaa !10
  store i32 %14, ptr %8, align 4, !tbaa !10
  call void @llvm.lifetime.start.p0(i64 1, ptr %9) #3
  %15 = load ptr, ptr %5, align 8, !tbaa !3
  %16 = load i32, ptr %7, align 4, !tbaa !10
  %17 = sext i32 %16 to i64
  %18 = getelementptr inbounds i8, ptr %15, i64 %17
  %19 = load i8, ptr %18, align 1, !tbaa !12
  store i8 %19, ptr %9, align 1, !tbaa !12
  %20 = load i8, ptr %9, align 1, !tbaa !12
  %21 = sext i8 %20 to i32
  %22 = icmp slt i32 %21, -64
  br i1 %22, label %23, label %190

23:                                               ; preds = %3
  %24 = load i32, ptr %7, align 4, !tbaa !10
  %25 = load i32, ptr %6, align 4, !tbaa !10
  %26 = icmp sgt i32 %24, %25
  br i1 %26, label %27, label %190

27:                                               ; preds = %23
  call void @llvm.lifetime.start.p0(i64 1, ptr %10) #3
  %28 = load ptr, ptr %5, align 8, !tbaa !3
  %29 = load i32, ptr %7, align 4, !tbaa !10
  %30 = add nsw i32 %29, -1
  store i32 %30, ptr %7, align 4, !tbaa !10
  %31 = sext i32 %30 to i64
  %32 = getelementptr inbounds i8, ptr %28, i64 %31
  %33 = load i8, ptr %32, align 1, !tbaa !12
  store i8 %33, ptr %10, align 1, !tbaa !12
  %34 = load i8, ptr %10, align 1, !tbaa !12
  %35 = zext i8 %34 to i32
  %36 = sub nsw i32 %35, 194
  %37 = trunc i32 %36 to i8
  %38 = zext i8 %37 to i32
  %39 = icmp sle i32 %38, 50
  br i1 %39, label %40, label %80

40:                                               ; preds = %27
  %41 = load i8, ptr %10, align 1, !tbaa !12
  %42 = zext i8 %41 to i32
  %43 = icmp slt i32 %42, 224
  br i1 %43, label %77, label %44

44:                                               ; preds = %40
  %45 = load i8, ptr %10, align 1, !tbaa !12
  %46 = zext i8 %45 to i32
  %47 = icmp slt i32 %46, 240
  br i1 %47, label %48, label %61

48:                                               ; preds = %44
  %49 = load i8, ptr %10, align 1, !tbaa !12
  %50 = zext i8 %49 to i32
  %51 = and i32 %50, 15
  %52 = sext i32 %51 to i64
  %53 = getelementptr inbounds [17 x i8], ptr @.str.1, i64 0, i64 %52
  %54 = load i8, ptr %53, align 1, !tbaa !12
  %55 = sext i8 %54 to i32
  %56 = load i8, ptr %9, align 1, !tbaa !12
  %57 = zext i8 %56 to i32
  %58 = ashr i32 %57, 5
  %59 = shl i32 1, %58
  %60 = and i32 %55, %59
  br label %74

61:                                               ; preds = %44
  %62 = load i8, ptr %9, align 1, !tbaa !12
  %63 = zext i8 %62 to i32
  %64 = ashr i32 %63, 4
  %65 = sext i32 %64 to i64
  %66 = getelementptr inbounds [17 x i8], ptr @.str, i64 0, i64 %65
  %67 = load i8, ptr %66, align 1, !tbaa !12
  %68 = sext i8 %67 to i32
  %69 = load i8, ptr %10, align 1, !tbaa !12
  %70 = zext i8 %69 to i32
  %71 = and i32 %70, 7
  %72 = shl i32 1, %71
  %73 = and i32 %68, %72
  br label %74

74:                                               ; preds = %61, %48
  %75 = phi i32 [ %60, %48 ], [ %73, %61 ]
  %76 = icmp ne i32 %75, 0
  br i1 %76, label %77, label %79

77:                                               ; preds = %74, %40
  %78 = load i32, ptr %7, align 4, !tbaa !10
  store i32 %78, ptr %4, align 4
  store i32 1, ptr %11, align 4
  br label %187

79:                                               ; preds = %74
  br label %186

80:                                               ; preds = %27
  %81 = load i8, ptr %10, align 1, !tbaa !12
  %82 = sext i8 %81 to i32
  %83 = icmp slt i32 %82, -64
  br i1 %83, label %84, label %185

84:                                               ; preds = %80
  %85 = load i32, ptr %7, align 4, !tbaa !10
  %86 = load i32, ptr %6, align 4, !tbaa !10
  %87 = icmp sgt i32 %85, %86
  br i1 %87, label %88, label %185

88:                                               ; preds = %84
  call void @llvm.lifetime.start.p0(i64 1, ptr %12) #3
  %89 = load ptr, ptr %5, align 8, !tbaa !3
  %90 = load i32, ptr %7, align 4, !tbaa !10
  %91 = add nsw i32 %90, -1
  store i32 %91, ptr %7, align 4, !tbaa !10
  %92 = sext i32 %91 to i64
  %93 = getelementptr inbounds i8, ptr %89, i64 %92
  %94 = load i8, ptr %93, align 1, !tbaa !12
  store i8 %94, ptr %12, align 1, !tbaa !12
  %95 = load i8, ptr %12, align 1, !tbaa !12
  %96 = zext i8 %95 to i32
  %97 = icmp sle i32 224, %96
  br i1 %97, label %98, label %138

98:                                               ; preds = %88
  %99 = load i8, ptr %12, align 1, !tbaa !12
  %100 = zext i8 %99 to i32
  %101 = icmp sle i32 %100, 244
  br i1 %101, label %102, label %138

102:                                              ; preds = %98
  %103 = load i8, ptr %12, align 1, !tbaa !12
  %104 = zext i8 %103 to i32
  %105 = icmp slt i32 %104, 240
  br i1 %105, label %106, label %119

106:                                              ; preds = %102
  %107 = load i8, ptr %12, align 1, !tbaa !12
  %108 = zext i8 %107 to i32
  %109 = and i32 %108, 15
  %110 = sext i32 %109 to i64
  %111 = getelementptr inbounds [17 x i8], ptr @.str.1, i64 0, i64 %110
  %112 = load i8, ptr %111, align 1, !tbaa !12
  %113 = sext i8 %112 to i32
  %114 = load i8, ptr %10, align 1, !tbaa !12
  %115 = zext i8 %114 to i32
  %116 = ashr i32 %115, 5
  %117 = shl i32 1, %116
  %118 = and i32 %113, %117
  br label %132

119:                                              ; preds = %102
  %120 = load i8, ptr %10, align 1, !tbaa !12
  %121 = zext i8 %120 to i32
  %122 = ashr i32 %121, 4
  %123 = sext i32 %122 to i64
  %124 = getelementptr inbounds [17 x i8], ptr @.str, i64 0, i64 %123
  %125 = load i8, ptr %124, align 1, !tbaa !12
  %126 = sext i8 %125 to i32
  %127 = load i8, ptr %12, align 1, !tbaa !12
  %128 = zext i8 %127 to i32
  %129 = and i32 %128, 7
  %130 = shl i32 1, %129
  %131 = and i32 %126, %130
  br label %132

132:                                              ; preds = %119, %106
  %133 = phi i32 [ %118, %106 ], [ %131, %119 ]
  %134 = icmp ne i32 %133, 0
  br i1 %134, label %135, label %137

135:                                              ; preds = %132
  %136 = load i32, ptr %7, align 4, !tbaa !10
  store i32 %136, ptr %4, align 4
  store i32 1, ptr %11, align 4
  br label %182

137:                                              ; preds = %132
  br label %181

138:                                              ; preds = %98, %88
  %139 = load i8, ptr %12, align 1, !tbaa !12
  %140 = sext i8 %139 to i32
  %141 = icmp slt i32 %140, -64
  br i1 %141, label %142, label %180

142:                                              ; preds = %138
  %143 = load i32, ptr %7, align 4, !tbaa !10
  %144 = load i32, ptr %6, align 4, !tbaa !10
  %145 = icmp sgt i32 %143, %144
  br i1 %145, label %146, label %180

146:                                              ; preds = %142
  call void @llvm.lifetime.start.p0(i64 1, ptr %13) #3
  %147 = load ptr, ptr %5, align 8, !tbaa !3
  %148 = load i32, ptr %7, align 4, !tbaa !10
  %149 = add nsw i32 %148, -1
  store i32 %149, ptr %7, align 4, !tbaa !10
  %150 = sext i32 %149 to i64
  %151 = getelementptr inbounds i8, ptr %147, i64 %150
  %152 = load i8, ptr %151, align 1, !tbaa !12
  store i8 %152, ptr %13, align 1, !tbaa !12
  %153 = load i8, ptr %13, align 1, !tbaa !12
  %154 = zext i8 %153 to i32
  %155 = icmp sle i32 240, %154
  br i1 %155, label %156, label %176

156:                                              ; preds = %146
  %157 = load i8, ptr %13, align 1, !tbaa !12
  %158 = zext i8 %157 to i32
  %159 = icmp sle i32 %158, 244
  br i1 %159, label %160, label %176

160:                                              ; preds = %156
  %161 = load i8, ptr %12, align 1, !tbaa !12
  %162 = zext i8 %161 to i32
  %163 = ashr i32 %162, 4
  %164 = sext i32 %163 to i64
  %165 = getelementptr inbounds [17 x i8], ptr @.str, i64 0, i64 %164
  %166 = load i8, ptr %165, align 1, !tbaa !12
  %167 = sext i8 %166 to i32
  %168 = load i8, ptr %13, align 1, !tbaa !12
  %169 = zext i8 %168 to i32
  %170 = and i32 %169, 7
  %171 = shl i32 1, %170
  %172 = and i32 %167, %171
  %173 = icmp ne i32 %172, 0
  br i1 %173, label %174, label %176

174:                                              ; preds = %160
  %175 = load i32, ptr %7, align 4, !tbaa !10
  store i32 %175, ptr %4, align 4
  store i32 1, ptr %11, align 4
  br label %177

176:                                              ; preds = %160, %156, %146
  store i32 0, ptr %11, align 4
  br label %177

177:                                              ; preds = %176, %174
  call void @llvm.lifetime.end.p0(i64 1, ptr %13) #3
  %178 = load i32, ptr %11, align 4
  switch i32 %178, label %182 [
    i32 0, label %179
  ]

179:                                              ; preds = %177
  br label %180

180:                                              ; preds = %179, %142, %138
  br label %181

181:                                              ; preds = %180, %137
  store i32 0, ptr %11, align 4
  br label %182

182:                                              ; preds = %181, %177, %135
  call void @llvm.lifetime.end.p0(i64 1, ptr %12) #3
  %183 = load i32, ptr %11, align 4
  switch i32 %183, label %187 [
    i32 0, label %184
  ]

184:                                              ; preds = %182
  br label %185

185:                                              ; preds = %184, %84, %80
  br label %186

186:                                              ; preds = %185, %79
  store i32 0, ptr %11, align 4
  br label %187

187:                                              ; preds = %186, %182, %77
  call void @llvm.lifetime.end.p0(i64 1, ptr %10) #3
  %188 = load i32, ptr %11, align 4
  switch i32 %188, label %192 [
    i32 0, label %189
  ]

189:                                              ; preds = %187
  br label %190

190:                                              ; preds = %189, %23, %3
  %191 = load i32, ptr %8, align 4, !tbaa !10
  store i32 %191, ptr %4, align 4
  store i32 1, ptr %11, align 4
  br label %192

192:                                              ; preds = %190, %187
  call void @llvm.lifetime.end.p0(i64 1, ptr %9) #3
  call void @llvm.lifetime.end.p0(i64 4, ptr %8) #3
  %193 = load i32, ptr %4, align 4
  ret i32 %193
}