; Function Attrs: mustprogress nofree norecurse nosync nounwind willreturn memory(argmem: read) uwtable
define i32 @utf8_back1SafeBody_77(ptr noundef readonly captures(none) %0, i32 noundef %1, i32 noundef %2) local_unnamed_addr #2 {
  %4 = sext i32 %2 to i64
  %5 = getelementptr inbounds i8, ptr %0, i64 %4
  %6 = load i8, ptr %5, align 1, !tbaa !7
  %7 = icmp slt i8 %6, -64
  %8 = icmp sgt i32 %2, %1
  %or.cond62 = and i1 %8, %7
  br i1 %or.cond62, label %9, label %.thread

9:                                                ; preds = %3
  %10 = add nsw i32 %2, -1
  %11 = sext i32 %10 to i64
  %12 = getelementptr inbounds i8, ptr %0, i64 %11
  %13 = load i8, ptr %12, align 1, !tbaa !7
  %14 = zext i8 %13 to i32
  %15 = add i8 %13, 62
  %16 = icmp ult i8 %15, 51
  br i1 %16, label %17, label %35

17:                                               ; preds = %9
  %18 = icmp samesign ult i8 %13, -32
  br i1 %18, label %.thread72, label %19

19:                                               ; preds = %17
  %20 = icmp samesign ult i8 %13, -16
  br i1 %20, label %21, label %27

21:                                               ; preds = %19
  %22 = and i32 %14, 15
  %23 = zext nneg i32 %22 to i64
  %24 = getelementptr inbounds nuw [17 x i8], ptr @.str.1, i64 0, i64 %23
  %25 = lshr i8 %6, 5
  %26 = zext nneg i8 %25 to i32
  br label %32

27:                                               ; preds = %19
  %28 = lshr i8 %6, 4
  %29 = zext nneg i8 %28 to i64
  %30 = getelementptr inbounds nuw [17 x i8], ptr @.str, i64 0, i64 %29
  %31 = and i32 %14, 7
  br label %32

32:                                               ; preds = %27, %21
  %.sink76 = phi i32 [ %31, %27 ], [ %26, %21 ]
  %.sink75.in.in = phi ptr [ %30, %27 ], [ %24, %21 ]
  %.sink75.in = load i8, ptr %.sink75.in.in, align 1, !tbaa !7
  %.sink75 = zext i8 %.sink75.in to i32
  %33 = shl nuw nsw i32 1, %.sink76
  %34 = and i32 %33, %.sink75
  %.not61 = icmp eq i32 %34, 0
  br i1 %.not61, label %.thread, label %.thread72

35:                                               ; preds = %9
  %36 = icmp slt i8 %13, -64
  %37 = icmp sgt i32 %10, %1
  %or.cond63 = and i1 %37, %36
  br i1 %or.cond63, label %38, label %.thread

38:                                               ; preds = %35
  %39 = add nsw i32 %2, -2
  %40 = sext i32 %39 to i64
  %41 = getelementptr inbounds i8, ptr %0, i64 %40
  %42 = load i8, ptr %41, align 1, !tbaa !7
  %43 = zext i8 %42 to i32
  %44 = add i8 %42, 32
  %or.cond = icmp ult i8 %44, 21
  br i1 %or.cond, label %45, label %57

45:                                               ; preds = %38
  %46 = icmp samesign ult i8 %42, -16
  %47 = and i32 %43, 15
  %48 = zext nneg i32 %47 to i64
  %49 = getelementptr inbounds nuw [17 x i8], ptr @.str.1, i64 0, i64 %48
  %50 = lshr i32 %14, 5
  %51 = lshr i32 %14, 4
  %52 = zext nneg i32 %51 to i64
  %53 = getelementptr inbounds nuw [17 x i8], ptr @.str, i64 0, i64 %52
  %54 = and i32 %43, 7
  %.sink78 = select i1 %46, i32 %50, i32 %54
  %.sink77.in.in = select i1 %46, ptr %49, ptr %53
  %.sink77.in = load i8, ptr %.sink77.in.in, align 1, !tbaa !7
  %.sink77 = zext i8 %.sink77.in to i32
  %55 = shl nuw nsw i32 1, %.sink78
  %56 = and i32 %55, %.sink77
  %.not60 = icmp eq i32 %56, 0
  br i1 %.not60, label %.thread, label %.thread72

57:                                               ; preds = %38
  %58 = icmp slt i8 %42, -64
  %59 = icmp sgt i32 %39, %1
  %or.cond64 = and i1 %59, %58
  br i1 %or.cond64, label %60, label %.thread

60:                                               ; preds = %57
  %61 = add nsw i32 %2, -3
  %62 = sext i32 %61 to i64
  %63 = getelementptr inbounds i8, ptr %0, i64 %62
  %64 = load i8, ptr %63, align 1, !tbaa !7
  %65 = add i8 %64, 16
  %or.cond7 = icmp ult i8 %65, 5
  br i1 %or.cond7, label %66, label %.thread

66:                                               ; preds = %60
  %67 = lshr i32 %43, 4
  %68 = zext nneg i32 %67 to i64
  %69 = getelementptr inbounds nuw [17 x i8], ptr @.str, i64 0, i64 %68
  %70 = load i8, ptr %69, align 1, !tbaa !7
  %71 = zext i8 %70 to i32
  %72 = and i8 %64, 7
  %73 = zext nneg i8 %72 to i32
  %74 = shl nuw nsw i32 1, %73
  %75 = and i32 %74, %71
  %.not = icmp eq i32 %75, 0
  br i1 %.not, label %.thread, label %.thread72

.thread72:                                        ; preds = %45, %32, %17, %66
  %.0.ph = phi i32 [ %10, %17 ], [ %10, %32 ], [ %39, %45 ], [ %61, %66 ]
  br label %.thread

.thread:                                          ; preds = %60, %66, %57, %3, %32, %45, %35, %.thread72
  %.5 = phi i32 [ %.0.ph, %.thread72 ], [ %2, %35 ], [ %2, %45 ], [ %2, %32 ], [ %2, %3 ], [ %2, %57 ], [ %2, %66 ], [ %2, %60 ]
  ret i32 %.5
}